(lp0
(iModel
CalendarDay
p1
(dp2
S'date'
p3
S'101010'
p4
sS'pressure'
p5
S'17'
p6
sS'clouds'
p7
S'16'
p8
sS'temperature'
p9
S'14'
p10
sba(iModel
CalendarDay
p11
(dp12
g3
S'10.10.2015'
p13
sg5
S'795'
p14
sg7
S'sunny'
p15
sg9
S'45'
p16
sba.